target datalayout = "e-m:e-p270:32:32-p271:32:32-p272:64:64-i64:64-i128:128-f80:128-n8:16:32:64-S128"
target triple = "x86_64-pc-linux-gnu"

@h223_pending_olc_reqs = internal global [2 x ptr] zeroinitializer, align 16
@h245_pending_olc_reqs = internal global ptr null, align 8
@.str.2871 = private unnamed_addr constant [26 x i8] c"MULTIMEDIA-SYSTEM-CONTROL\00", align 1
@.str.2872 = private unnamed_addr constant [6 x i8] c"H.245\00", align 1
@.str.2873 = private unnamed_addr constant [5 x i8] c"h245\00", align 1
@proto_h245 = internal global i32 0, align 4
@.str.2874 = private unnamed_addr constant [11 x i8] c"reassembly\00", align 1
@.str.2875 = private unnamed_addr constant [57 x i8] c"Reassemble H.245 messages spanning multiple TCP segments\00", align 1
@.str.2876 = private unnamed_addr constant [206 x i8] c"Whether the H.245 dissector should reassemble messages spanning multiple TCP segments. To use this option, you must also enable \22Allow subdissectors to reassemble TCP streams\22 in the TCP protocol settings.\00", align 1
@h245_reassembly = internal global i8 1, align 1
@.str.2877 = private unnamed_addr constant [11 x i8] c"shorttypes\00", align 1
@.str.2878 = private unnamed_addr constant [25 x i8] c"Show short message types\00", align 1
@.str.2879 = private unnamed_addr constant [82 x i8] c"Whether the dissector should show short names or the long names from the standard\00", align 1
@h245_shorttypes = internal global i8 0, align 1
@.str.2880 = private unnamed_addr constant [8 x i8] c"prepand\00", align 1
@.str.2881 = private unnamed_addr constant [33 x i8] c"Show h245 info in reversed order\00", align 1
@.str.2882 = private unnamed_addr constant [79 x i8] c"Whether the dissector should print items of h245 Info column in reversed order\00", align 1
@info_col_fmt_prepend = internal global i8 0, align 1
@.str.2883 = private unnamed_addr constant [7 x i8] c"h245dg\00", align 1
@MultimediaSystemControlMessage_handle = internal global ptr null, align 8
@h245_handle = internal global ptr null, align 8
@.str.2884 = private unnamed_addr constant [16 x i8] c"h245.nsp.object\00", align 1
@.str.2885 = private unnamed_addr constant [36 x i8] c"H.245 NonStandardParameter (object)\00", align 1
@nsp_object_dissector_table = internal global ptr null, align 8
@.str.2886 = private unnamed_addr constant [14 x i8] c"h245.nsp.h221\00", align 1
@.str.2887 = private unnamed_addr constant [34 x i8] c"H.245 NonStandardParameter (h221)\00", align 1
@nsp_h221_dissector_table = internal global ptr null, align 8
@.str.2888 = private unnamed_addr constant [14 x i8] c"h245.gef.name\00", align 1
@.str.2889 = private unnamed_addr constant [40 x i8] c"H.245 Generic Extensible Framework Name\00", align 1
@gef_name_dissector_table = internal global ptr null, align 8
@.str.2890 = private unnamed_addr constant [17 x i8] c"h245.gef.content\00", align 1
@.str.2891 = private unnamed_addr constant [43 x i8] c"H.245 Generic Extensible Framework Content\00", align 1
@gef_content_dissector_table = internal global ptr null, align 8
@h245_tap = internal global i32 0, align 4
@h245dg_tap = internal global i32 0, align 4
@.str.2892 = private unnamed_addr constant [22 x i8] c"h239ControlCapability\00", align 1
@.str.2893 = private unnamed_addr constant [14 x i8] c"0.0.8.239.1.1\00", align 1
@.str.2894 = private unnamed_addr constant [28 x i8] c"h239ExtendedVideoCapability\00", align 1
@.str.2895 = private unnamed_addr constant [14 x i8] c"0.0.8.239.1.2\00", align 1
@.str.2896 = private unnamed_addr constant [16 x i8] c"generic-message\00", align 1
@.str.2897 = private unnamed_addr constant [12 x i8] c"0.0.8.239.2\00", align 1
@.str.2898 = private unnamed_addr constant [15 x i8] c"h245 version 3\00", align 1
@.str.2899 = private unnamed_addr constant [14 x i8] c"0.0.8.245.0.3\00", align 1
@.str.2900 = private unnamed_addr constant [15 x i8] c"h245 version 4\00", align 1
@.str.2901 = private unnamed_addr constant [14 x i8] c"0.0.8.245.0.4\00", align 1
@.str.2902 = private unnamed_addr constant [15 x i8] c"h245 version 5\00", align 1
@.str.2903 = private unnamed_addr constant [14 x i8] c"0.0.8.245.0.5\00", align 1
@.str.2904 = private unnamed_addr constant [15 x i8] c"h245 version 6\00", align 1
@.str.2905 = private unnamed_addr constant [14 x i8] c"0.0.8.245.0.6\00", align 1
@.str.2906 = private unnamed_addr constant [15 x i8] c"h245 version 7\00", align 1
@.str.2907 = private unnamed_addr constant [14 x i8] c"0.0.8.245.0.7\00", align 1
@.str.2908 = private unnamed_addr constant [15 x i8] c"h245 version 8\00", align 1
@.str.2909 = private unnamed_addr constant [14 x i8] c"0.0.8.245.0.8\00", align 1
@.str.2910 = private unnamed_addr constant [15 x i8] c"h245 version 9\00", align 1
@.str.2911 = private unnamed_addr constant [14 x i8] c"0.0.8.245.0.9\00", align 1
@.str.2912 = private unnamed_addr constant [16 x i8] c"h245 version 10\00", align 1
@.str.2913 = private unnamed_addr constant [15 x i8] c"0.0.8.245.0.10\00", align 1
@.str.2914 = private unnamed_addr constant [16 x i8] c"h245 version 11\00", align 1
@.str.2915 = private unnamed_addr constant [15 x i8] c"0.0.8.245.0.11\00", align 1
@.str.2916 = private unnamed_addr constant [16 x i8] c"h245 version 12\00", align 1
@.str.2917 = private unnamed_addr constant [15 x i8] c"0.0.8.245.0.12\00", align 1
@.str.2918 = private unnamed_addr constant [16 x i8] c"h245 version 13\00", align 1
@.str.2919 = private unnamed_addr constant [15 x i8] c"0.0.8.245.0.13\00", align 1
@.str.2920 = private unnamed_addr constant [29 x i8] c"ISO/IEC 14496-2 MPEG-4 video\00", align 1
@.str.2921 = private unnamed_addr constant [16 x i8] c"0.0.8.245.1.0.0\00", align 1
@.str.2922 = private unnamed_addr constant [29 x i8] c"ISO/IEC 14496-3 MPEG-4 audio\00", align 1
@.str.2923 = private unnamed_addr constant [16 x i8] c"0.0.8.245.1.1.0\00", align 1
@.str.2924 = private unnamed_addr constant [4 x i8] c"AMR\00", align 1
@.str.2925 = private unnamed_addr constant [16 x i8] c"0.0.8.245.1.1.1\00", align 1
@.str.2926 = private unnamed_addr constant [6 x i8] c"acelp\00", align 1
@.str.2927 = private unnamed_addr constant [16 x i8] c"0.0.8.245.1.1.2\00", align 1
@.str.2928 = private unnamed_addr constant [4 x i8] c"us1\00", align 1
@.str.2929 = private unnamed_addr constant [16 x i8] c"0.0.8.245.1.1.3\00", align 1
@.str.2930 = private unnamed_addr constant [10 x i8] c"is127evrc\00", align 1
@.str.2931 = private unnamed_addr constant [16 x i8] c"0.0.8.245.1.1.4\00", align 1
@.str.2932 = private unnamed_addr constant [16 x i8] c"ISO/IEC 13818-7\00", align 1
@.str.2933 = private unnamed_addr constant [16 x i8] c"0.0.8.245.1.1.5\00", align 1
@.str.2934 = private unnamed_addr constant [8 x i8] c"rfc3389\00", align 1
@.str.2935 = private unnamed_addr constant [16 x i8] c"0.0.8.245.1.1.6\00", align 1
@.str.2936 = private unnamed_addr constant [5 x i8] c"L-16\00", align 1
@.str.2937 = private unnamed_addr constant [16 x i8] c"0.0.8.245.1.1.7\00", align 1
@.str.2938 = private unnamed_addr constant [21 x i8] c"bounded-audio-stream\00", align 1
@.str.2939 = private unnamed_addr constant [16 x i8] c"0.0.8.245.1.1.8\00", align 1
@.str.2940 = private unnamed_addr constant [7 x i8] c"AMR-NB\00", align 1
@.str.2941 = private unnamed_addr constant [16 x i8] c"0.0.8.245.1.1.9\00", align 1
@.str.2942 = private unnamed_addr constant [7 x i8] c"AMR-WB\00", align 1
@.str.2943 = private unnamed_addr constant [17 x i8] c"0.0.8.245.1.1.10\00", align 1
@.str.2944 = private unnamed_addr constant [5 x i8] c"ilbc\00", align 1
@.str.2945 = private unnamed_addr constant [17 x i8] c"0.0.8.245.1.1.11\00", align 1
@.str.2946 = private unnamed_addr constant [16 x i8] c"ISO/IEC 14496-1\00", align 1
@.str.2947 = private unnamed_addr constant [16 x i8] c"0.0.8.245.1.2.0\00", align 1
@.str.2948 = private unnamed_addr constant [5 x i8] c"Nx64\00", align 1
@.str.2949 = private unnamed_addr constant [16 x i8] c"0.0.8.245.1.2.1\00", align 1
@.str.2950 = private unnamed_addr constant [35 x i8] c"logical-channel-bit-ratemanagement\00", align 1
@.str.2951 = private unnamed_addr constant [16 x i8] c"0.0.8.245.1.3.0\00", align 1
@.str.2952 = private unnamed_addr constant [26 x i8] c"h264 generic-capabilities\00", align 1
@.str.2953 = private unnamed_addr constant [16 x i8] c"0.0.8.241.0.0.1\00", align 1
@.str.2954 = private unnamed_addr constant [49 x i8] c"iPpacketization_h241AnnexA(single NAL unit mode)\00", align 1
@.str.2955 = private unnamed_addr constant [18 x i8] c"0.0.8.241.0.0.0.0\00", align 1
@.str.2956 = private unnamed_addr constant [38 x i8] c"iPpacketization_RFC3984NonInterleaved\00", align 1
@.str.2957 = private unnamed_addr constant [18 x i8] c"0.0.8.241.0.0.0.1\00", align 1
@.str.2958 = private unnamed_addr constant [35 x i8] c"iPpacketization_RFC3984Interleaved\00", align 1
@.str.2959 = private unnamed_addr constant [18 x i8] c"0.0.8.241.0.0.0.2\00", align 1

; Function Attrs: null_pointer_is_valid sspstrong uwtable
define hidden void @proto_register_h245() #1 {
  %1 = alloca ptr, align 8
  call void @llvm.lifetime.start.p0(i64 8, ptr %1) #12
  %2 = call i32 @proto_register_protocol(ptr noundef @.str.2871, ptr noundef @.str.2872, ptr noundef @.str.2873)
  store i32 %2, ptr @proto_h245, align 4
  %3 = call ptr @wmem_epan_scope()
  %4 = call ptr @wmem_file_scope()
  %5 = call noalias ptr @wmem_map_new_autoreset(ptr noundef %3, ptr noundef %4, ptr noundef @g_direct_hash, ptr noundef @g_direct_equal)
  store ptr %5, ptr @h223_pending_olc_reqs, align 16
  %6 = call ptr @wmem_epan_scope()
  %7 = call ptr @wmem_file_scope()
  %8 = call noalias ptr @wmem_map_new_autoreset(ptr noundef %6, ptr noundef %7, ptr noundef @g_direct_hash, ptr noundef @g_direct_equal)
  store ptr %8, ptr getelementptr ([2 x ptr], ptr @h223_pending_olc_reqs, i64 0, i64 1), align 8
  %9 = call ptr @wmem_epan_scope()
  %10 = call ptr @wmem_file_scope()
  %11 = call noalias ptr @wmem_map_new_autoreset(ptr noundef %9, ptr noundef %10, ptr noundef @wmem_str_hash, ptr noundef @g_str_equal)
  store ptr %11, ptr @h245_pending_olc_reqs, align 8
  call void @register_init_routine(ptr noundef @h223_lc_init)
  %12 = load i32, ptr @proto_h245, align 4
  call void @proto_register_field_array(i32 noundef %12, ptr noundef @proto_register_h245.hf, i32 noundef 1406)
  call void @proto_register_subtree_array(ptr noundef @proto_register_h245.ett, i32 noundef 493)
  %13 = load i32, ptr @proto_h245, align 4
  %14 = call ptr @prefs_register_protocol(i32 noundef %13, ptr noundef null)
  store ptr %14, ptr %1, align 8
  %15 = load ptr, ptr %1, align 8
  call void @prefs_register_bool_preference(ptr noundef %15, ptr noundef @.str.2874, ptr noundef @.str.2875, ptr noundef @.str.2876, ptr noundef @h245_reassembly)
  %16 = load ptr, ptr %1, align 8
  call void @prefs_register_bool_preference(ptr noundef %16, ptr noundef @.str.2877, ptr noundef @.str.2878, ptr noundef @.str.2879, ptr noundef @h245_shorttypes)
  %17 = load ptr, ptr %1, align 8
  call void @prefs_register_bool_preference(ptr noundef %17, ptr noundef @.str.2880, ptr noundef @.str.2881, ptr noundef @.str.2882, ptr noundef @info_col_fmt_prepend)
  %18 = load i32, ptr @proto_h245, align 4
  %19 = call ptr @register_dissector(ptr noundef @.str.2883, ptr noundef @dissect_h245_h245, i32 noundef %18)
  store ptr %19, ptr @MultimediaSystemControlMessage_handle, align 8
  %20 = load i32, ptr @proto_h245, align 4
  %21 = call ptr @register_dissector(ptr noundef @.str.2873, ptr noundef @dissect_h245, i32 noundef %20)
  store ptr %21, ptr @h245_handle, align 8
  %22 = load i32, ptr @proto_h245, align 4
  %23 = call ptr @register_dissector_table(ptr noundef @.str.2884, ptr noundef @.str.2885, i32 noundef %22, i32 noundef 26, i32 noundef 0)
  store ptr %23, ptr @nsp_object_dissector_table, align 8
  %24 = load i32, ptr @proto_h245, align 4
  %25 = call ptr @register_dissector_table(ptr noundef @.str.2886, ptr noundef @.str.2887, i32 noundef %24, i32 noundef 7, i32 noundef 2)
  store ptr %25, ptr @nsp_h221_dissector_table, align 8
  %26 = load i32, ptr @proto_h245, align 4
  %27 = call ptr @register_dissector_table(ptr noundef @.str.2888, ptr noundef @.str.2889, i32 noundef %26, i32 noundef 26, i32 noundef 0)
  store ptr %27, ptr @gef_name_dissector_table, align 8
  %28 = load i32, ptr @proto_h245, align 4
  %29 = call ptr @register_dissector_table(ptr noundef @.str.2890, ptr noundef @.str.2891, i32 noundef %28, i32 noundef 26, i32 noundef 0)
  store ptr %29, ptr @gef_content_dissector_table, align 8
  %30 = call i32 @register_tap(ptr noundef @.str.2873)
  store i32 %30, ptr @h245_tap, align 4
  %31 = call i32 @register_tap(ptr noundef @.str.2883)
  store i32 %31, ptr @h245dg_tap, align 4
  call void @oid_add_from_string(ptr noundef @.str.2892, ptr noundef @.str.2893)
  call void @oid_add_from_string(ptr noundef @.str.2894, ptr noundef @.str.2895)
  call void @oid_add_from_string(ptr noundef @.str.2896, ptr noundef @.str.2897)
  call void @oid_add_from_string(ptr noundef @.str.2898, ptr noundef @.str.2899)
  call void @oid_add_from_string(ptr noundef @.str.2900, ptr noundef @.str.2901)
  call void @oid_add_from_string(ptr noundef @.str.2902, ptr noundef @.str.2903)
  call void @oid_add_from_string(ptr noundef @.str.2904, ptr noundef @.str.2905)
  call void @oid_add_from_string(ptr noundef @.str.2906, ptr noundef @.str.2907)
  call void @oid_add_from_string(ptr noundef @.str.2908, ptr noundef @.str.2909)
  call void @oid_add_from_string(ptr noundef @.str.2910, ptr noundef @.str.2911)
  call void @oid_add_from_string(ptr noundef @.str.2912, ptr noundef @.str.2913)
  call void @oid_add_from_string(ptr noundef @.str.2914, ptr noundef @.str.2915)
  call void @oid_add_from_string(ptr noundef @.str.2916, ptr noundef @.str.2917)
  call void @oid_add_from_string(ptr noundef @.str.2918, ptr noundef @.str.2919)
  call void @oid_add_from_string(ptr noundef @.str.2920, ptr noundef @.str.2921)
  call void @oid_add_from_string(ptr noundef @.str.2922, ptr noundef @.str.2923)
  call void @oid_add_from_string(ptr noundef @.str.2924, ptr noundef @.str.2925)
  call void @oid_add_from_string(ptr noundef @.str.2926, ptr noundef @.str.2927)
  call void @oid_add_from_string(ptr noundef @.str.2928, ptr noundef @.str.2929)
  call void @oid_add_from_string(ptr noundef @.str.2930, ptr noundef @.str.2931)
  call void @oid_add_from_string(ptr noundef @.str.2932, ptr noundef @.str.2933)
  call void @oid_add_from_string(ptr noundef @.str.2934, ptr noundef @.str.2935)
  call void @oid_add_from_string(ptr noundef @.str.2936, ptr noundef @.str.2937)
  call void @oid_add_from_string(ptr noundef @.str.2938, ptr noundef @.str.2939)
  call void @oid_add_from_string(ptr noundef @.str.2940, ptr noundef @.str.2941)
  call void @oid_add_from_string(ptr noundef @.str.2942, ptr noundef @.str.2943)
  call void @oid_add_from_string(ptr noundef @.str.2944, ptr noundef @.str.2945)
  call void @oid_add_from_string(ptr noundef @.str.2946, ptr noundef @.str.2947)
  call void @oid_add_from_string(ptr noundef @.str.2948, ptr noundef @.str.2949)
  call void @oid_add_from_string(ptr noundef @.str.2950, ptr noundef @.str.2951)
  call void @oid_add_from_string(ptr noundef @.str.2952, ptr noundef @.str.2953)
  call void @oid_add_from_string(ptr noundef @.str.2954, ptr noundef @.str.2955)
  call void @oid_add_from_string(ptr noundef @.str.2956, ptr noundef @.str.2957)
  call void @oid_add_from_string(ptr noundef @.str.2958, ptr noundef @.str.2959)
  call void @llvm.lifetime.end.p0(i64 8, ptr %1) #12
  ret void
}