; Function Attrs: null_pointer_is_valid sspstrong uwtable
define hidden void @proto_register_h245() local_unnamed_addr #1 {
  %1 = tail call i32 @proto_register_protocol(ptr noundef nonnull @.str.2871, ptr noundef nonnull @.str.2872, ptr noundef nonnull @.str.2873)
  store i32 %1, ptr @proto_h245, align 4
  %2 = tail call ptr @wmem_epan_scope()
  %3 = tail call ptr @wmem_file_scope()
  %4 = tail call noalias ptr @wmem_map_new_autoreset(ptr noundef %2, ptr noundef %3, ptr noundef nonnull @g_direct_hash, ptr noundef nonnull @g_direct_equal)
  store ptr %4, ptr @h223_pending_olc_reqs, align 16
  %5 = tail call ptr @wmem_epan_scope()
  %6 = tail call ptr @wmem_file_scope()
  %7 = tail call noalias ptr @wmem_map_new_autoreset(ptr noundef %5, ptr noundef %6, ptr noundef nonnull @g_direct_hash, ptr noundef nonnull @g_direct_equal)
  store ptr %7, ptr getelementptr inbounds nuw (i8, ptr @h223_pending_olc_reqs, i64 8), align 8
  %8 = tail call ptr @wmem_epan_scope()
  %9 = tail call ptr @wmem_file_scope()
  %10 = tail call noalias ptr @wmem_map_new_autoreset(ptr noundef %8, ptr noundef %9, ptr noundef nonnull @wmem_str_hash, ptr noundef nonnull @g_str_equal)
  store ptr %10, ptr @h245_pending_olc_reqs, align 8
  tail call void @register_init_routine(ptr noundef nonnull @h223_lc_init)
  %11 = load i32, ptr @proto_h245, align 4
  tail call void @proto_register_field_array(i32 noundef %11, ptr noundef nonnull @proto_register_h245.hf, i32 noundef 1406)
  tail call void @proto_register_subtree_array(ptr noundef nonnull @proto_register_h245.ett, i32 noundef 493)
  %12 = load i32, ptr @proto_h245, align 4
  %13 = tail call ptr @prefs_register_protocol(i32 noundef %12, ptr noundef null)
  tail call void @prefs_register_bool_preference(ptr noundef %13, ptr noundef nonnull @.str.2874, ptr noundef nonnull @.str.2875, ptr noundef nonnull @.str.2876, ptr noundef nonnull @h245_reassembly)
  tail call void @prefs_register_bool_preference(ptr noundef %13, ptr noundef nonnull @.str.2877, ptr noundef nonnull @.str.2878, ptr noundef nonnull @.str.2879, ptr noundef nonnull @h245_shorttypes)
  tail call void @prefs_register_bool_preference(ptr noundef %13, ptr noundef nonnull @.str.2880, ptr noundef nonnull @.str.2881, ptr noundef nonnull @.str.2882, ptr noundef nonnull @info_col_fmt_prepend)
  %14 = load i32, ptr @proto_h245, align 4
  %15 = tail call ptr @register_dissector(ptr noundef nonnull @.str.2883, ptr noundef nonnull @dissect_h245_h245, i32 noundef %14)
  store ptr %15, ptr @MultimediaSystemControlMessage_handle, align 8
  %16 = load i32, ptr @proto_h245, align 4
  %17 = tail call ptr @register_dissector(ptr noundef nonnull @.str.2873, ptr noundef nonnull @dissect_h245, i32 noundef %16)
  store ptr %17, ptr @h245_handle, align 8
  %18 = load i32, ptr @proto_h245, align 4
  %19 = tail call ptr @register_dissector_table(ptr noundef nonnull @.str.2884, ptr noundef nonnull @.str.2885, i32 noundef %18, i32 noundef 26, i32 noundef 0)
  store ptr %19, ptr @nsp_object_dissector_table, align 8
  %20 = load i32, ptr @proto_h245, align 4
  %21 = tail call ptr @register_dissector_table(ptr noundef nonnull @.str.2886, ptr noundef nonnull @.str.2887, i32 noundef %20, i32 noundef 7, i32 noundef 2)
  store ptr %21, ptr @nsp_h221_dissector_table, align 8
  %22 = load i32, ptr @proto_h245, align 4
  %23 = tail call ptr @register_dissector_table(ptr noundef nonnull @.str.2888, ptr noundef nonnull @.str.2889, i32 noundef %22, i32 noundef 26, i32 noundef 0)
  store ptr %23, ptr @gef_name_dissector_table, align 8
  %24 = load i32, ptr @proto_h245, align 4
  %25 = tail call ptr @register_dissector_table(ptr noundef nonnull @.str.2890, ptr noundef nonnull @.str.2891, i32 noundef %24, i32 noundef 26, i32 noundef 0)
  store ptr %25, ptr @gef_content_dissector_table, align 8
  %26 = tail call i32 @register_tap(ptr noundef nonnull @.str.2873)
  %27 = tail call i32 @register_tap(ptr noundef nonnull @.str.2883)
  store i32 %27, ptr @h245dg_tap, align 4
  tail call void @oid_add_from_string(ptr noundef nonnull @.str.2892, ptr noundef nonnull @.str.2893)
  tail call void @oid_add_from_string(ptr noundef nonnull @.str.2894, ptr noundef nonnull @.str.2895)
  tail call void @oid_add_from_string(ptr noundef nonnull @.str.2896, ptr noundef nonnull @.str.2897)
  tail call void @oid_add_from_string(ptr noundef nonnull @.str.2898, ptr noundef nonnull @.str.2899)
  tail call void @oid_add_from_string(ptr noundef nonnull @.str.2900, ptr noundef nonnull @.str.2901)
  tail call void @oid_add_from_string(ptr noundef nonnull @.str.2902, ptr noundef nonnull @.str.2903)
  tail call void @oid_add_from_string(ptr noundef nonnull @.str.2904, ptr noundef nonnull @.str.2905)
  tail call void @oid_add_from_string(ptr noundef nonnull @.str.2906, ptr noundef nonnull @.str.2907)
  tail call void @oid_add_from_string(ptr noundef nonnull @.str.2908, ptr noundef nonnull @.str.2909)
  tail call void @oid_add_from_string(ptr noundef nonnull @.str.2910, ptr noundef nonnull @.str.2911)
  tail call void @oid_add_from_string(ptr noundef nonnull @.str.2912, ptr noundef nonnull @.str.2913)
  tail call void @oid_add_from_string(ptr noundef nonnull @.str.2914, ptr noundef nonnull @.str.2915)
  tail call void @oid_add_from_string(ptr noundef nonnull @.str.2916, ptr noundef nonnull @.str.2917)
  tail call void @oid_add_from_string(ptr noundef nonnull @.str.2918, ptr noundef nonnull @.str.2919)
  tail call void @oid_add_from_string(ptr noundef nonnull @.str.2920, ptr noundef nonnull @.str.2921)
  tail call void @oid_add_from_string(ptr noundef nonnull @.str.2922, ptr noundef nonnull @.str.2923)
  tail call void @oid_add_from_string(ptr noundef nonnull @.str.2924, ptr noundef nonnull @.str.2925)
  tail call void @oid_add_from_string(ptr noundef nonnull @.str.2926, ptr noundef nonnull @.str.2927)
  tail call void @oid_add_from_string(ptr noundef nonnull @.str.2928, ptr noundef nonnull @.str.2929)
  tail call void @oid_add_from_string(ptr noundef nonnull @.str.2930, ptr noundef nonnull @.str.2931)
  tail call void @oid_add_from_string(ptr noundef nonnull @.str.2932, ptr noundef nonnull @.str.2933)
  tail call void @oid_add_from_string(ptr noundef nonnull @.str.2934, ptr noundef nonnull @.str.2935)
  tail call void @oid_add_from_string(ptr noundef nonnull @.str.2936, ptr noundef nonnull @.str.2937)
  tail call void @oid_add_from_string(ptr noundef nonnull @.str.2938, ptr noundef nonnull @.str.2939)
  tail call void @oid_add_from_string(ptr noundef nonnull @.str.2940, ptr noundef nonnull @.str.2941)
  tail call void @oid_add_from_string(ptr noundef nonnull @.str.2942, ptr noundef nonnull @.str.2943)
  tail call void @oid_add_from_string(ptr noundef nonnull @.str.2944, ptr noundef nonnull @.str.2945)
  tail call void @oid_add_from_string(ptr noundef nonnull @.str.2946, ptr noundef nonnull @.str.2947)
  tail call void @oid_add_from_string(ptr noundef nonnull @.str.2948, ptr noundef nonnull @.str.2949)
  tail call void @oid_add_from_string(ptr noundef nonnull @.str.2950, ptr noundef nonnull @.str.2951)
  tail call void @oid_add_from_string(ptr noundef nonnull @.str.2952, ptr noundef nonnull @.str.2953)
  tail call void @oid_add_from_string(ptr noundef nonnull @.str.2954, ptr noundef nonnull @.str.2955)
  tail call void @oid_add_from_string(ptr noundef nonnull @.str.2956, ptr noundef nonnull @.str.2957)
  tail call void @oid_add_from_string(ptr noundef nonnull @.str.2958, ptr noundef nonnull @.str.2959)
  ret void
}